target datalayout = "e-m:e-p270:32:32-p271:32:32-p272:64:64-i64:64-i128:128-f80:128-n8:16:32:64-S128"
target triple = "x86_64-pc-linux-gnu"

%"struct.faiss::InvertedLists.base" = type <{ ptr, i64, i64, i8 }>
%"struct.faiss::ReadOnlyInvertedLists.base" = type { %"struct.faiss::InvertedLists.base" }
%"struct.faiss::MaskedInvertedLists" = type { %"struct.faiss::ReadOnlyInvertedLists.base", ptr, ptr }

; Function Attrs: mustprogress uwtable
define noundef ptr @_ZNK5faiss19MaskedInvertedLists9get_codesEm(ptr noundef nonnull align 8 dereferenceable(48) %0, i64 noundef %1) unnamed_addr #2 align 2 {
  %3 = alloca ptr, align 8
  %4 = alloca i64, align 8
  %5 = alloca i64, align 8
  store ptr %0, ptr %3, align 8, !tbaa !55
  store i64 %1, ptr %4, align 8, !tbaa !11
  %6 = load ptr, ptr %3, align 8
  call void @llvm.lifetime.start.p0(i64 8, ptr %5) #6
  %7 = getelementptr inbounds nuw %"struct.faiss::MaskedInvertedLists", ptr %6, i32 0, i32 1
  %8 = load ptr, ptr %7, align 8, !tbaa !57
  %9 = load i64, ptr %4, align 8, !tbaa !11
  %10 = load ptr, ptr %8, align 8, !tbaa !17
  %11 = getelementptr inbounds ptr, ptr %10, i64 2
  %12 = load ptr, ptr %11, align 8
  %13 = call noundef i64 %12(ptr noundef nonnull align 8 dereferenceable(25) %8, i64 noundef %9)
  store i64 %13, ptr %5, align 8, !tbaa !11
  %14 = load i64, ptr %5, align 8, !tbaa !11
  %15 = icmp ne i64 %14, 0
  br i1 %15, label %16, label %19

16:                                               ; preds = %2
  %17 = getelementptr inbounds nuw %"struct.faiss::MaskedInvertedLists", ptr %6, i32 0, i32 1
  %18 = load ptr, ptr %17, align 8, !tbaa !57
  br label %22

19:                                               ; preds = %2
  %20 = getelementptr inbounds nuw %"struct.faiss::MaskedInvertedLists", ptr %6, i32 0, i32 2
  %21 = load ptr, ptr %20, align 8, !tbaa !59
  br label %22

22:                                               ; preds = %19, %16
  %23 = phi ptr [ %18, %16 ], [ %21, %19 ]
  %24 = load i64, ptr %4, align 8, !tbaa !11
  %25 = load ptr, ptr %23, align 8, !tbaa !17
  %26 = getelementptr inbounds ptr, ptr %25, i64 3
  %27 = load ptr, ptr %26, align 8
  %28 = call noundef ptr %27(ptr noundef nonnull align 8 dereferenceable(25) %23, i64 noundef %24)
  call void @llvm.lifetime.end.p0(i64 8, ptr %5) #6
  ret ptr %28
}