; Function Attrs: mustprogress uwtable
define noundef ptr @_ZNK5faiss19MaskedInvertedLists9get_codesEm(ptr noundef nonnull readonly align 8 captures(none) dereferenceable(48) %0, i64 noundef %1) unnamed_addr #2 align 2 {
  %3 = getelementptr inbounds nuw i8, ptr %0, i64 32
  %4 = load ptr, ptr %3, align 8, !tbaa !76
  %5 = load ptr, ptr %4, align 8, !tbaa !4
  %6 = getelementptr inbounds nuw i8, ptr %5, i64 16
  %7 = load ptr, ptr %6, align 8
  %8 = tail call noundef i64 %7(ptr noundef nonnull align 8 dereferenceable(25) %4, i64 noundef %1)
  %.not = icmp eq i64 %8, 0
  %9 = getelementptr inbounds nuw i8, ptr %0, i64 40
  %.val = load ptr, ptr %9, align 8
  %.val3 = load ptr, ptr %3, align 8
  %10 = select i1 %.not, ptr %.val, ptr %.val3
  %11 = load ptr, ptr %10, align 8, !tbaa !4
  %12 = getelementptr inbounds nuw i8, ptr %11, i64 24
  %13 = load ptr, ptr %12, align 8
  %14 = tail call noundef ptr %13(ptr noundef nonnull align 8 dereferenceable(25) %10, i64 noundef %1)
  ret ptr %14
}